; Function Attrs: mustprogress uwtable
define hidden void @_ZN2cv8ximgproc12segmentation47SelectiveSearchSegmentationStrategyMultipleImpl8setImageERKNS_11_InputArrayES5_S5_i(ptr noundef nonnull readonly align 8 captures(none) dereferenceable(96) %0, ptr noundef nonnull align 8 dereferenceable(24) %1, ptr noundef nonnull align 8 dereferenceable(24) %2, ptr noundef nonnull align 8 dereferenceable(24) %3, i32 noundef %4) unnamed_addr #3 align 2 {
  %6 = getelementptr inbounds nuw i8, ptr %0, i64 40
  %7 = getelementptr inbounds nuw i8, ptr %0, i64 48
  %8 = load ptr, ptr %7, align 8, !tbaa !91
  %9 = load ptr, ptr %6, align 8, !tbaa !111
  %.not = icmp eq ptr %8, %9
  br i1 %.not, label %._crit_edge, label %.lr.ph

._crit_edge:                                      ; preds = %.lr.ph, %5
  ret void

.lr.ph:                                           ; preds = %5, %.lr.ph
  %10 = phi ptr [ %20, %.lr.ph ], [ %9, %5 ]
  %11 = phi i64 [ %18, %.lr.ph ], [ 0, %5 ]
  %.08 = phi i32 [ %17, %.lr.ph ], [ 0, %5 ]
  %12 = getelementptr inbounds nuw %"struct.cv::Ptr.7", ptr %10, i64 %11
  %13 = load ptr, ptr %12, align 8, !tbaa !95
  %14 = load ptr, ptr %13, align 8, !tbaa !53
  %15 = getelementptr inbounds nuw i8, ptr %14, i64 64
  %16 = load ptr, ptr %15, align 8
  tail call void %16(ptr noundef nonnull align 8 dereferenceable(8) %13, ptr noundef nonnull align 8 dereferenceable(24) %1, ptr noundef nonnull align 8 dereferenceable(24) %2, ptr noundef nonnull align 8 dereferenceable(24) %3, i32 noundef %4)
  %17 = add i32 %.08, 1
  %18 = zext i32 %17 to i64
  %19 = load ptr, ptr %7, align 8, !tbaa !91
  %20 = load ptr, ptr %6, align 8, !tbaa !111
  %21 = ptrtoint ptr %19 to i64
  %22 = ptrtoint ptr %20 to i64
  %23 = sub i64 %21, %22
  %24 = ashr exact i64 %23, 4
  %25 = icmp ugt i64 %24, %18
  br i1 %25, label %.lr.ph, label %._crit_edge, !llvm.loop !113
}